target datalayout = "e-m:e-p270:32:32-p271:32:32-p272:64:64-i64:64-i128:128-f80:128-n8:16:32:64-S128"
target triple = "x86_64-pc-linux-gnu"

%struct.ossl_decoder_st = type { %struct.ossl_endecode_base_st, ptr, ptr, ptr, ptr, ptr, ptr, ptr, ptr, ptr }
%struct.ossl_endecode_base_st = type { ptr, i32, ptr, ptr, ptr, %struct.CRYPTO_REF_COUNT }
%struct.CRYPTO_REF_COUNT = type { i32 }

@.str = private unnamed_addr constant [47 x i8] c"../openssl/crypto/encode_decode/decoder_meth.c\00", align 1

; Function Attrs: inlinehint nounwind uwtable
define internal void @CRYPTO_FREE_REF(ptr noundef %0) #2 {
  %2 = alloca ptr, align 8
  store ptr %0, ptr %2, align 8, !tbaa !10
  ret void
}

; Function Attrs: inlinehint nounwind uwtable
define internal i32 @CRYPTO_DOWN_REF(ptr noundef %0, ptr noundef %1) #2 {
  %3 = alloca ptr, align 8
  %4 = alloca ptr, align 8
  %5 = alloca i32, align 4
  %6 = alloca i32, align 4
  store ptr %0, ptr %3, align 8, !tbaa !10
  store ptr %1, ptr %4, align 8, !tbaa !11
  %7 = load ptr, ptr %3, align 8, !tbaa !10
  %8 = getelementptr inbounds nuw %struct.CRYPTO_REF_COUNT, ptr %7, i32 0, i32 0
  store i32 1, ptr %5, align 4, !tbaa !8
  %9 = load i32, ptr %5, align 4
  %10 = atomicrmw sub ptr %8, i32 %9 release, align 4
  store i32 %10, ptr %6, align 4
  %11 = load i32, ptr %6, align 4, !tbaa !8
  %12 = sub nsw i32 %11, 1
  %13 = load ptr, ptr %4, align 8, !tbaa !11
  store i32 %12, ptr %13, align 4, !tbaa !8
  %14 = load ptr, ptr %4, align 8, !tbaa !11
  %15 = load i32, ptr %14, align 4, !tbaa !8
  %16 = icmp eq i32 %15, 0
  br i1 %16, label %17, label %18

17:                                               ; preds = %2
  fence acquire
  br label %18

18:                                               ; preds = %17, %2
  ret i32 1
}

; Function Attrs: nounwind uwtable
define void @OSSL_DECODER_free(ptr noundef %0) #0 {
  %2 = alloca ptr, align 8
  %3 = alloca i32, align 4
  %4 = alloca i32, align 4
  store ptr %0, ptr %2, align 8, !tbaa !3
  call void @llvm.lifetime.start.p0(i64 4, ptr %3) #7
  store i32 0, ptr %3, align 4, !tbaa !8
  %5 = load ptr, ptr %2, align 8, !tbaa !3
  %6 = icmp eq ptr %5, null
  br i1 %6, label %7, label %8

7:                                                ; preds = %1
  store i32 1, ptr %4, align 4
  br label %33

8:                                                ; preds = %1
  %9 = load ptr, ptr %2, align 8, !tbaa !3
  %10 = getelementptr inbounds nuw %struct.ossl_decoder_st, ptr %9, i32 0, i32 0
  %11 = getelementptr inbounds nuw %struct.ossl_endecode_base_st, ptr %10, i32 0, i32 5
  %12 = call i32 @CRYPTO_DOWN_REF(ptr noundef %11, ptr noundef %3)
  %13 = load i32, ptr %3, align 4, !tbaa !8
  %14 = icmp sgt i32 %13, 0
  br i1 %14, label %15, label %16

15:                                               ; preds = %8
  store i32 1, ptr %4, align 4
  br label %33

16:                                               ; preds = %8
  %17 = load ptr, ptr %2, align 8, !tbaa !3
  %18 = getelementptr inbounds nuw %struct.ossl_decoder_st, ptr %17, i32 0, i32 0
  %19 = getelementptr inbounds nuw %struct.ossl_endecode_base_st, ptr %18, i32 0, i32 2
  %20 = load ptr, ptr %19, align 8, !tbaa !13
  call void @CRYPTO_free(ptr noundef %20, ptr noundef @.str, i32 noundef 70)
  %21 = load ptr, ptr %2, align 8, !tbaa !3
  %22 = getelementptr inbounds nuw %struct.ossl_decoder_st, ptr %21, i32 0, i32 0
  %23 = getelementptr inbounds nuw %struct.ossl_endecode_base_st, ptr %22, i32 0, i32 4
  %24 = load ptr, ptr %23, align 8, !tbaa !21
  call void @ossl_property_free(ptr noundef %24)
  %25 = load ptr, ptr %2, align 8, !tbaa !3
  %26 = getelementptr inbounds nuw %struct.ossl_decoder_st, ptr %25, i32 0, i32 0
  %27 = getelementptr inbounds nuw %struct.ossl_endecode_base_st, ptr %26, i32 0, i32 0
  %28 = load ptr, ptr %27, align 8, !tbaa !22
  call void @ossl_provider_free(ptr noundef %28)
  %29 = load ptr, ptr %2, align 8, !tbaa !3
  %30 = getelementptr inbounds nuw %struct.ossl_decoder_st, ptr %29, i32 0, i32 0
  %31 = getelementptr inbounds nuw %struct.ossl_endecode_base_st, ptr %30, i32 0, i32 5
  call void @CRYPTO_FREE_REF(ptr noundef %31)
  %32 = load ptr, ptr %2, align 8, !tbaa !3
  call void @CRYPTO_free(ptr noundef %32, ptr noundef @.str, i32 noundef 74)
  store i32 0, ptr %4, align 4
  br label %33

33:                                               ; preds = %16, %15, %7
  call void @llvm.lifetime.end.p0(i64 4, ptr %3) #7
  %34 = load i32, ptr %4, align 4
  switch i32 %34, label %36 [
    i32 0, label %35
    i32 1, label %35
  ]

35:                                               ; preds = %33, %33
  ret void

36:                                               ; preds = %33
  unreachable
}